target datalayout = "e-m:e-p270:32:32-p271:32:32-p272:64:64-i64:64-i128:128-f80:128-n8:16:32:64-S128"
target triple = "x86_64-pc-linux-gnu"

%struct.PJconsts = type { ptr, ptr, ptr, ptr, ptr, ptr, ptr, ptr, ptr, ptr, ptr, ptr, i32, ptr, ptr, ptr, ptr, ptr, ptr, ptr, ptr, double, double, double, double, double, double, double, double, double, double, double, double, double, double, double, double, double, double, double, double, double, double, i32, i32, i32, i32, i32, i32, i32, i32, i32, i32, i32, ptr, ptr, ptr, ptr, ptr, ptr, double, double, double, double, double, double, double, double, double, double, double, i32, [7 x double], i32, ptr, ptr, double, double, i32, [4 x i8], %"class.std::shared_ptr", i8, double, i8, %"class.std::__cxx11::basic_string", %"class.std::__cxx11::basic_string", %"class.std::__cxx11::basic_string", i8, %"class.std::vector", i32, %"class.std::vector.3", i32, i8, i8, i8, ptr }
%"class.std::shared_ptr" = type { %"class.std::__shared_ptr" }
%"class.std::__shared_ptr" = type { ptr, %"class.std::__shared_count" }
%"class.std::__shared_count" = type { ptr }
%"class.std::__cxx11::basic_string" = type { %"struct.std::__cxx11::basic_string<char>::_Alloc_hider", i64, %union.anon }
%"struct.std::__cxx11::basic_string<char>::_Alloc_hider" = type { ptr }
%union.anon = type { i64, [8 x i8] }
%"class.std::vector" = type { %"struct.std::_Vector_base" }
%"struct.std::_Vector_base" = type { %"struct.std::_Vector_base<osgeo::proj::operation::GridDescription, std::allocator<osgeo::proj::operation::GridDescription>>::_Vector_impl" }
%"struct.std::_Vector_base<osgeo::proj::operation::GridDescription, std::allocator<osgeo::proj::operation::GridDescription>>::_Vector_impl" = type { %"struct.std::_Vector_base<osgeo::proj::operation::GridDescription, std::allocator<osgeo::proj::operation::GridDescription>>::_Vector_impl_data" }
%"struct.std::_Vector_base<osgeo::proj::operation::GridDescription, std::allocator<osgeo::proj::operation::GridDescription>>::_Vector_impl_data" = type { ptr, ptr, ptr }
%"class.std::vector.3" = type { %"struct.std::_Vector_base.4" }
%"struct.std::_Vector_base.4" = type { %"struct.std::_Vector_base<PJCoordOperation, std::allocator<PJCoordOperation>>::_Vector_impl" }
%"struct.std::_Vector_base<PJCoordOperation, std::allocator<PJCoordOperation>>::_Vector_impl" = type { %"struct.std::_Vector_base<PJCoordOperation, std::allocator<PJCoordOperation>>::_Vector_impl_data" }
%"struct.std::_Vector_base<PJCoordOperation, std::allocator<PJCoordOperation>>::_Vector_impl_data" = type { ptr, ptr, ptr }
%"struct.(anonymous namespace)::pj_aitoff_data" = type { double, i32 }
%struct.PJ_LP = type { double, double }
%struct.PJ_XY = type { double, double }

; Function Attrs: mustprogress nounwind uwtable
define internal { double, double } @_ZL16aitoff_s_forward5PJ_LPP8PJconsts(double %0, double %1, ptr noundef %2) #4 {
  %4 = alloca %struct.PJ_XY, align 8
  %5 = alloca %struct.PJ_LP, align 8
  %6 = alloca ptr, align 8
  %7 = alloca ptr, align 8
  %8 = alloca double, align 8
  %9 = alloca double, align 8
  %10 = getelementptr inbounds nuw { double, double }, ptr %5, i32 0, i32 0
  store double %0, ptr %10, align 8
  %11 = getelementptr inbounds nuw { double, double }, ptr %5, i32 0, i32 1
  store double %1, ptr %11, align 8
  store ptr %2, ptr %6, align 8, !tbaa !3
  call void @llvm.memset.p0.i64(ptr align 8 %4, i8 0, i64 16, i1 false)
  call void @llvm.lifetime.start.p0(i64 8, ptr %7) #8
  %12 = load ptr, ptr %6, align 8, !tbaa !3
  %13 = getelementptr inbounds nuw %struct.PJconsts, ptr %12, i32 0, i32 11
  %14 = load ptr, ptr %13, align 8, !tbaa !43
  store ptr %14, ptr %7, align 8, !tbaa !41
  call void @llvm.lifetime.start.p0(i64 8, ptr %8) #8
  call void @llvm.lifetime.start.p0(i64 8, ptr %9) #8
  %15 = getelementptr inbounds nuw %struct.PJ_LP, ptr %5, i32 0, i32 0
  %16 = load double, ptr %15, align 8, !tbaa !61
  %17 = fmul double 5.000000e-01, %16
  store double %17, ptr %8, align 8, !tbaa !55
  %18 = getelementptr inbounds nuw %struct.PJ_LP, ptr %5, i32 0, i32 1
  %19 = load double, ptr %18, align 8, !tbaa !59
  %20 = call double @cos(double noundef %19) #8, !tbaa !53
  %21 = load double, ptr %8, align 8, !tbaa !55
  %22 = call double @cos(double noundef %21) #8, !tbaa !53
  %23 = fmul double %20, %22
  %24 = call double @acos(double noundef %23) #8, !tbaa !53
  store double %24, ptr %9, align 8, !tbaa !55
  %25 = load double, ptr %9, align 8, !tbaa !55
  %26 = fcmp une double %25, 0.000000e+00
  br i1 %26, label %27, label %51

27:                                               ; preds = %3
  %28 = load double, ptr %9, align 8, !tbaa !55
  %29 = fmul double 2.000000e+00, %28
  %30 = getelementptr inbounds nuw %struct.PJ_LP, ptr %5, i32 0, i32 1
  %31 = load double, ptr %30, align 8, !tbaa !59
  %32 = call double @cos(double noundef %31) #8, !tbaa !53
  %33 = fmul double %29, %32
  %34 = load double, ptr %8, align 8, !tbaa !55
  %35 = call double @sin(double noundef %34) #8, !tbaa !53
  %36 = fmul double %33, %35
  %37 = load double, ptr %9, align 8, !tbaa !55
  %38 = call double @sin(double noundef %37) #8, !tbaa !53
  %39 = fdiv double 1.000000e+00, %38
  %40 = getelementptr inbounds nuw %struct.PJ_XY, ptr %4, i32 0, i32 1
  store double %39, ptr %40, align 8, !tbaa !58
  %41 = fmul double %36, %39
  %42 = getelementptr inbounds nuw %struct.PJ_XY, ptr %4, i32 0, i32 0
  store double %41, ptr %42, align 8, !tbaa !56
  %43 = load double, ptr %9, align 8, !tbaa !55
  %44 = getelementptr inbounds nuw %struct.PJ_LP, ptr %5, i32 0, i32 1
  %45 = load double, ptr %44, align 8, !tbaa !59
  %46 = call double @sin(double noundef %45) #8, !tbaa !53
  %47 = fmul double %43, %46
  %48 = getelementptr inbounds nuw %struct.PJ_XY, ptr %4, i32 0, i32 1
  %49 = load double, ptr %48, align 8, !tbaa !58
  %50 = fmul double %49, %47
  store double %50, ptr %48, align 8, !tbaa !58
  br label %54

51:                                               ; preds = %3
  %52 = getelementptr inbounds nuw %struct.PJ_XY, ptr %4, i32 0, i32 1
  store double 0.000000e+00, ptr %52, align 8, !tbaa !58
  %53 = getelementptr inbounds nuw %struct.PJ_XY, ptr %4, i32 0, i32 0
  store double 0.000000e+00, ptr %53, align 8, !tbaa !56
  br label %54

54:                                               ; preds = %51, %27
  %55 = load ptr, ptr %7, align 8, !tbaa !41
  %56 = getelementptr inbounds nuw %"struct.(anonymous namespace)::pj_aitoff_data", ptr %55, i32 0, i32 1
  %57 = load i32, ptr %56, align 8, !tbaa !44
  %58 = icmp eq i32 %57, 1
  br i1 %58, label %59, label %77

59:                                               ; preds = %54
  %60 = getelementptr inbounds nuw %struct.PJ_XY, ptr %4, i32 0, i32 0
  %61 = load double, ptr %60, align 8, !tbaa !56
  %62 = getelementptr inbounds nuw %struct.PJ_LP, ptr %5, i32 0, i32 0
  %63 = load double, ptr %62, align 8, !tbaa !61
  %64 = load ptr, ptr %7, align 8, !tbaa !41
  %65 = getelementptr inbounds nuw %"struct.(anonymous namespace)::pj_aitoff_data", ptr %64, i32 0, i32 0
  %66 = load double, ptr %65, align 8, !tbaa !54
  %67 = call double @llvm.fmuladd.f64(double %63, double %66, double %61)
  %68 = fmul double %67, 5.000000e-01
  %69 = getelementptr inbounds nuw %struct.PJ_XY, ptr %4, i32 0, i32 0
  store double %68, ptr %69, align 8, !tbaa !56
  %70 = getelementptr inbounds nuw %struct.PJ_XY, ptr %4, i32 0, i32 1
  %71 = load double, ptr %70, align 8, !tbaa !58
  %72 = getelementptr inbounds nuw %struct.PJ_LP, ptr %5, i32 0, i32 1
  %73 = load double, ptr %72, align 8, !tbaa !59
  %74 = fadd double %71, %73
  %75 = fmul double %74, 5.000000e-01
  %76 = getelementptr inbounds nuw %struct.PJ_XY, ptr %4, i32 0, i32 1
  store double %75, ptr %76, align 8, !tbaa !58
  br label %77

77:                                               ; preds = %59, %54
  call void @llvm.lifetime.end.p0(i64 8, ptr %9) #8
  call void @llvm.lifetime.end.p0(i64 8, ptr %8) #8
  call void @llvm.lifetime.end.p0(i64 8, ptr %7) #8
  %78 = load { double, double }, ptr %4, align 8
  ret { double, double } %78
}