; Function Attrs: mustprogress nofree nounwind willreturn memory(readwrite, inaccessiblemem: write) uwtable
define internal { double, double } @_ZL16aitoff_s_forward5PJ_LPP8PJconsts(double %0, double %1, ptr noundef readonly captures(none) %2) #4 {
  %4 = getelementptr inbounds nuw i8, ptr %2, i64 88
  %5 = load ptr, ptr %4, align 8, !tbaa !3
  %6 = fmul double %0, 5.000000e-01
  %7 = tail call double @cos(double noundef %1) #7, !tbaa !49
  %8 = tail call double @cos(double noundef %6) #7, !tbaa !49
  %9 = fmul double %7, %8
  %10 = tail call double @acos(double noundef %9) #7, !tbaa !49
  %11 = fcmp une double %10, 0.000000e+00
  br i1 %11, label %12, label %24

12:                                               ; preds = %3
  %13 = fmul double %10, 2.000000e+00
  %14 = tail call double @cos(double noundef %1) #7, !tbaa !49
  %15 = fmul double %13, %14
  %16 = tail call double @sin(double noundef %6) #7, !tbaa !49
  %17 = fmul double %15, %16
  %18 = tail call double @sin(double noundef %10) #7, !tbaa !49
  %19 = fdiv double 1.000000e+00, %18
  %20 = fmul double %17, %19
  %21 = tail call double @sin(double noundef %1) #7, !tbaa !49
  %22 = fmul double %10, %21
  %23 = fmul double %19, %22
  br label %24

24:                                               ; preds = %3, %12
  %.sroa.6.0 = phi double [ %23, %12 ], [ 0.000000e+00, %3 ]
  %.sroa.013.0 = phi double [ %20, %12 ], [ 0.000000e+00, %3 ]
  %25 = getelementptr inbounds nuw i8, ptr %5, i64 8
  %26 = load i32, ptr %25, align 8, !tbaa !44
  %27 = icmp eq i32 %26, 1
  br i1 %27, label %28, label %34

28:                                               ; preds = %24
  %29 = load double, ptr %5, align 8, !tbaa !50
  %30 = tail call double @llvm.fmuladd.f64(double %0, double %29, double %.sroa.013.0)
  %31 = fmul double %30, 5.000000e-01
  %32 = fadd double %1, %.sroa.6.0
  %33 = fmul double %32, 5.000000e-01
  br label %34

34:                                               ; preds = %28, %24
  %.sroa.6.1 = phi double [ %33, %28 ], [ %.sroa.6.0, %24 ]
  %.sroa.013.1 = phi double [ %31, %28 ], [ %.sroa.013.0, %24 ]
  %.fca.0.insert = insertvalue { double, double } poison, double %.sroa.013.1, 0
  %.fca.1.insert = insertvalue { double, double } %.fca.0.insert, double %.sroa.6.1, 1
  ret { double, double } %.fca.1.insert
}